target datalayout = "e-m:e-p270:32:32-p271:32:32-p272:64:64-i64:64-i128:128-f80:128-n8:16:32:64-S128"
target triple = "x86_64-pc-linux-gnu"

; Function Attrs: nounwind uwtable
define internal i32 @dissect_fc(ptr noundef %0, ptr noundef %1, ptr noundef %2, ptr noundef %3) #0 {
  %5 = alloca i32, align 4
  %6 = alloca ptr, align 8
  %7 = alloca ptr, align 8
  %8 = alloca ptr, align 8
  %9 = alloca ptr, align 8
  %10 = alloca ptr, align 8
  store ptr %0, ptr %6, align 8
  store ptr %1, ptr %7, align 8
  store ptr %2, ptr %8, align 8
  store ptr %3, ptr %9, align 8
  %11 = load ptr, ptr %9, align 8
  store ptr %11, ptr %10, align 8
  %12 = load ptr, ptr %10, align 8
  %13 = icmp ne ptr %12, null
  br i1 %13, label %15, label %14

14:                                               ; preds = %4
  store i32 0, ptr %5, align 4
  br label %22

15:                                               ; preds = %4
  %16 = load ptr, ptr %6, align 8
  %17 = load ptr, ptr %7, align 8
  %18 = load ptr, ptr %8, align 8
  %19 = load ptr, ptr %10, align 8
  call void @dissect_fc_helper(ptr noundef %16, ptr noundef %17, ptr noundef %18, i32 noundef 0, ptr noundef %19)
  %20 = load ptr, ptr %6, align 8
  %21 = call i32 @tvb_captured_length(ptr noundef %20)
  store i32 %21, ptr %5, align 4
  br label %22

22:                                               ; preds = %15, %14
  %23 = load i32, ptr %5, align 4
  ret i32 %23
}