; Function Attrs: nounwind uwtable
define internal i32 @dissect_fc(ptr noundef %0, ptr noundef %1, ptr noundef %2, ptr noundef readonly %3) #0 {
  %.not = icmp eq ptr %3, null
  br i1 %.not, label %7, label %5

5:                                                ; preds = %4
  tail call fastcc void @dissect_fc_helper(ptr noundef %0, ptr noundef %1, ptr noundef %2, i32 noundef 0, ptr noundef %3)
  %6 = tail call i32 @tvb_captured_length(ptr noundef %0) #4
  br label %7

7:                                                ; preds = %4, %5
  %.0 = phi i32 [ %6, %5 ], [ 0, %4 ]
  ret i32 %.0
}